; Function Attrs: mustprogress nounwind uwtable
define dso_local void @_ZNSt3__112strstreambufD0Ev(ptr noundef nonnull align 8 dereferenceable(96) initializes((0, 8)) %0) unnamed_addr #0 align 2 personality ptr @__gxx_personality_v0 {
  store ptr getelementptr inbounds nuw inrange(-16, 112) (i8, ptr @_ZTVNSt3__112strstreambufE, i64 16), ptr %0, align 8, !tbaa !4
  %2 = getelementptr inbounds nuw i8, ptr %0, i64 16
  %3 = load ptr, ptr %2, align 8, !tbaa !23
  %.not.i = icmp eq ptr %3, null
  br i1 %.not.i, label %_ZNSt3__112strstreambufD2Ev.exit, label %4

4:                                                ; preds = %1
  %5 = getelementptr inbounds nuw i8, ptr %0, i64 64
  %6 = load i32, ptr %5, align 8, !tbaa !7
  %7 = and i32 %6, 9
  %or.cond.i = icmp eq i32 %7, 1
  br i1 %or.cond.i, label %8, label %_ZNSt3__112strstreambufD2Ev.exit

8:                                                ; preds = %4
  %9 = getelementptr inbounds nuw i8, ptr %0, i64 88
  %10 = load ptr, ptr %9, align 8, !tbaa !19
  %.not3.i = icmp eq ptr %10, null
  br i1 %.not3.i, label %12, label %11

11:                                               ; preds = %8
  invoke void %10(ptr noundef nonnull %3)
          to label %_ZNSt3__112strstreambufD2Ev.exit unwind label %13

12:                                               ; preds = %8
  tail call void @_ZdaPv(ptr noundef nonnull %3) #20
  br label %_ZNSt3__112strstreambufD2Ev.exit

13:                                               ; preds = %11
  %14 = landingpad { ptr, i32 }
          catch ptr null
  %15 = extractvalue { ptr, i32 } %14, 0
  tail call void @__clang_call_terminate(ptr %15) #21
  unreachable

_ZNSt3__112strstreambufD2Ev.exit:                 ; preds = %1, %4, %11, %12
  store ptr getelementptr inbounds nuw inrange(-16, 112) (i8, ptr @_ZTVNSt3__115basic_streambufIcNS_11char_traitsIcEEEE, i64 16), ptr %0, align 8, !tbaa !4
  %16 = getelementptr inbounds nuw i8, ptr %0, i64 8
  tail call void @_ZNSt3__16localeD1Ev(ptr noundef nonnull align 8 dereferenceable(8) %16) #18
  tail call void @_ZdlPvm(ptr noundef nonnull %0, i64 noundef 96) #20
  ret void
}